; Function Attrs: mustprogress uwtable
define void @_ZN15TCPStreamDialog27on_actionDragZoom_triggeredEv(ptr nocapture noundef nonnull readonly align 8 dereferenceable(584) %0) local_unnamed_addr #2 align 2 {
  %2 = getelementptr inbounds i8, ptr %0, i64 472
  %3 = load i8, ptr %2, align 8
  %4 = and i8 %3, 1
  %.not = icmp eq i8 %4, 0
  %5 = getelementptr inbounds i8, ptr %0, i64 64
  %6 = load ptr, ptr %5, align 8
  %. = select i1 %.not, i64 352, i64 360
  %7 = getelementptr inbounds i8, ptr %6, i64 %.
  %8 = load ptr, ptr %7, align 8
  tail call void @_ZN15QAbstractButton6toggleEv(ptr noundef nonnull align 8 dereferenceable(40) %8)
  ret void
}